; Function Attrs: nounwind uwtable
define internal fastcc void @dissect_app_config_parameters(ptr noundef %0, i32 noundef range(i32 5, 9) %1, ptr noundef %2) unnamed_addr #0 {
  %4 = tail call zeroext i8 @tvb_get_guint8(ptr noundef %0, i32 noundef %1) #2
  %5 = zext i8 %4 to i32
  %6 = load i32, ptr @hf_uci_app_config_parameters_count, align 4
  %7 = tail call ptr @proto_tree_add_item(ptr noundef %2, i32 noundef %6, ptr noundef %0, i32 noundef %1, i32 noundef 1, i32 noundef 0) #2
  %8 = icmp eq i8 %4, 0
  br i1 %8, label %.loopexit, label %9

9:                                                ; preds = %3
  %10 = add nuw nsw i32 %1, 1
  %11 = load i32, ptr @ett_uci_app_config_parameters, align 4
  %12 = tail call ptr @proto_tree_add_subtree(ptr noundef %2, ptr noundef %0, i32 noundef %10, i32 noundef -1, i32 noundef %11, ptr noundef null, ptr noundef nonnull @.str.297) #2
  br label %13

13:                                               ; preds = %9, %13
  %.02 = phi i32 [ %10, %9 ], [ %30, %13 ]
  %.0351 = phi i32 [ 0, %9 ], [ %31, %13 ]
  %14 = tail call zeroext i8 @tvb_get_guint8(ptr noundef %0, i32 noundef %.02) #2
  %15 = zext i8 %14 to i32
  %16 = add i32 %.02, 1
  %17 = tail call zeroext i8 @tvb_get_guint8(ptr noundef %0, i32 noundef %16) #2
  %18 = zext i8 %17 to i32
  %19 = add nuw nsw i32 %18, 2
  %20 = load i32, ptr @ett_uci_app_config_parameter, align 4
  %21 = tail call ptr @val_to_str(i32 noundef %15, ptr noundef nonnull @app_config_parameter_type_vals, ptr noundef nonnull @.str.280) #2
  %22 = tail call ptr @proto_tree_add_subtree(ptr noundef %12, ptr noundef %0, i32 noundef %.02, i32 noundef %19, i32 noundef %20, ptr noundef null, ptr noundef %21) #2
  %23 = load i32, ptr @hf_uci_app_config_parameter_type, align 4
  %24 = tail call ptr @proto_tree_add_item(ptr noundef %22, i32 noundef %23, ptr noundef %0, i32 noundef %.02, i32 noundef 1, i32 noundef 0) #2
  %25 = load i32, ptr @hf_uci_app_config_parameter_len, align 4
  %26 = tail call ptr @proto_tree_add_item(ptr noundef %22, i32 noundef %25, ptr noundef %0, i32 noundef %16, i32 noundef 1, i32 noundef 0) #2
  %27 = add i32 %.02, 2
  %28 = load i32, ptr @hf_uci_app_config_parameter_value, align 4
  %29 = tail call ptr @proto_tree_add_item(ptr noundef %22, i32 noundef %28, ptr noundef %0, i32 noundef %27, i32 noundef %18, i32 noundef 0) #2
  %30 = add i32 %27, %18
  %31 = add nuw nsw i32 %.0351, 1
  %exitcond.not = icmp eq i32 %31, %5
  br i1 %exitcond.not, label %.loopexit, label %13, !llvm.loop !14

.loopexit:                                        ; preds = %13, %3
  ret void
}